; Function Attrs: mustprogress nounwind uwtable
define dso_local noundef zeroext i1 @_ZNK4llvm3pdb7PDBFile15hasPDBDbiStreamEv(ptr noundef nonnull align 8 dereferenceable(280) %0) local_unnamed_addr #0 align 2 {
  %2 = load ptr, ptr %0, align 8
  %3 = getelementptr inbounds i8, ptr %2, i64 32
  %4 = load ptr, ptr %3, align 8
  %5 = tail call noundef i32 %4(ptr noundef nonnull align 8 dereferenceable(280) %0) #18
  %6 = icmp ugt i32 %5, 3
  br i1 %6, label %7, label %13

7:                                                ; preds = %1
  %8 = load ptr, ptr %0, align 8
  %9 = getelementptr inbounds i8, ptr %8, i64 40
  %10 = load ptr, ptr %9, align 8
  %11 = tail call noundef i32 %10(ptr noundef nonnull align 8 dereferenceable(280) %0, i32 noundef 3) #18
  %12 = icmp ne i32 %11, 0
  br label %13

13:                                               ; preds = %7, %1
  %14 = phi i1 [ false, %1 ], [ %12, %7 ]
  ret i1 %14
}